target datalayout = "e-m:e-p270:32:32-p271:32:32-p272:64:64-i64:64-i128:128-f80:128-n8:16:32:64-S128"
target triple = "x86_64-pc-linux-gnu"

%"class.std::__cxx11::basic_string" = type { %"struct.std::__cxx11::basic_string<char>::_Alloc_hider", i64, %union.anon.0 }
%"struct.std::__cxx11::basic_string<char>::_Alloc_hider" = type { ptr }
%union.anon.0 = type { i64, [8 x i8] }
%"struct.std::__detail::_Hash_node_base" = type { ptr }
%"struct.std::__detail::_Prime_rehash_policy" = type { float, i64 }
%"class.LIEF::DEX::File" = type { %"class.LIEF::Object", %"class.std::__cxx11::basic_string", %"class.std::__cxx11::basic_string", %"class.LIEF::DEX::Header", %"class.std::unordered_map.40", %"class.std::vector.60", %"class.std::vector.65", %"class.std::vector.70", %"class.std::vector.75", %"class.std::vector.80", %"class.LIEF::DEX::MapList", %"class.std::vector.89", %"class.std::vector.94" }
%"class.LIEF::Object" = type { ptr }
%"class.LIEF::DEX::Header" = type { %"class.LIEF::Object", %"struct.std::array", i32, %"struct.std::array.39", i32, i32, i32, i32, i32, i32, i32, i32, i32, i32, i32, i32, i32, i32, i32, i32, i32, i32, i32, i32 }
%"struct.std::array" = type { [8 x i8] }
%"struct.std::array.39" = type { [20 x i8] }
%"class.std::unordered_map.40" = type { %"class.std::_Hashtable.41" }
%"class.std::_Hashtable.41" = type { ptr, i64, %"struct.std::__detail::_Hash_node_base", i64, %"struct.std::__detail::_Prime_rehash_policy", ptr }
%"class.std::vector.60" = type { %"struct.std::_Vector_base.61" }
%"struct.std::_Vector_base.61" = type { %"struct.std::_Vector_base<std::unique_ptr<LIEF::DEX::Method>, std::allocator<std::unique_ptr<LIEF::DEX::Method>>>::_Vector_impl" }
%"struct.std::_Vector_base<std::unique_ptr<LIEF::DEX::Method>, std::allocator<std::unique_ptr<LIEF::DEX::Method>>>::_Vector_impl" = type { %"struct.std::_Vector_base<std::unique_ptr<LIEF::DEX::Method>, std::allocator<std::unique_ptr<LIEF::DEX::Method>>>::_Vector_impl_data" }
%"struct.std::_Vector_base<std::unique_ptr<LIEF::DEX::Method>, std::allocator<std::unique_ptr<LIEF::DEX::Method>>>::_Vector_impl_data" = type { ptr, ptr, ptr }
%"class.std::vector.65" = type { %"struct.std::_Vector_base.66" }
%"struct.std::_Vector_base.66" = type { %"struct.std::_Vector_base<std::unique_ptr<LIEF::DEX::Field>, std::allocator<std::unique_ptr<LIEF::DEX::Field>>>::_Vector_impl" }
%"struct.std::_Vector_base<std::unique_ptr<LIEF::DEX::Field>, std::allocator<std::unique_ptr<LIEF::DEX::Field>>>::_Vector_impl" = type { %"struct.std::_Vector_base<std::unique_ptr<LIEF::DEX::Field>, std::allocator<std::unique_ptr<LIEF::DEX::Field>>>::_Vector_impl_data" }
%"struct.std::_Vector_base<std::unique_ptr<LIEF::DEX::Field>, std::allocator<std::unique_ptr<LIEF::DEX::Field>>>::_Vector_impl_data" = type { ptr, ptr, ptr }
%"class.std::vector.70" = type { %"struct.std::_Vector_base.71" }
%"struct.std::_Vector_base.71" = type { %"struct.std::_Vector_base<std::unique_ptr<std::__cxx11::basic_string<char>>, std::allocator<std::unique_ptr<std::__cxx11::basic_string<char>>>>::_Vector_impl" }
%"struct.std::_Vector_base<std::unique_ptr<std::__cxx11::basic_string<char>>, std::allocator<std::unique_ptr<std::__cxx11::basic_string<char>>>>::_Vector_impl" = type { %"struct.std::_Vector_base<std::unique_ptr<std::__cxx11::basic_string<char>>, std::allocator<std::unique_ptr<std::__cxx11::basic_string<char>>>>::_Vector_impl_data" }
%"struct.std::_Vector_base<std::unique_ptr<std::__cxx11::basic_string<char>>, std::allocator<std::unique_ptr<std::__cxx11::basic_string<char>>>>::_Vector_impl_data" = type { ptr, ptr, ptr }
%"class.std::vector.75" = type { %"struct.std::_Vector_base.76" }
%"struct.std::_Vector_base.76" = type { %"struct.std::_Vector_base<std::unique_ptr<LIEF::DEX::Type>, std::allocator<std::unique_ptr<LIEF::DEX::Type>>>::_Vector_impl" }
%"struct.std::_Vector_base<std::unique_ptr<LIEF::DEX::Type>, std::allocator<std::unique_ptr<LIEF::DEX::Type>>>::_Vector_impl" = type { %"struct.std::_Vector_base<std::unique_ptr<LIEF::DEX::Type>, std::allocator<std::unique_ptr<LIEF::DEX::Type>>>::_Vector_impl_data" }
%"struct.std::_Vector_base<std::unique_ptr<LIEF::DEX::Type>, std::allocator<std::unique_ptr<LIEF::DEX::Type>>>::_Vector_impl_data" = type { ptr, ptr, ptr }
%"class.std::vector.80" = type { %"struct.std::_Vector_base.81" }
%"struct.std::_Vector_base.81" = type { %"struct.std::_Vector_base<std::unique_ptr<LIEF::DEX::Prototype>, std::allocator<std::unique_ptr<LIEF::DEX::Prototype>>>::_Vector_impl" }
%"struct.std::_Vector_base<std::unique_ptr<LIEF::DEX::Prototype>, std::allocator<std::unique_ptr<LIEF::DEX::Prototype>>>::_Vector_impl" = type { %"struct.std::_Vector_base<std::unique_ptr<LIEF::DEX::Prototype>, std::allocator<std::unique_ptr<LIEF::DEX::Prototype>>>::_Vector_impl_data" }
%"struct.std::_Vector_base<std::unique_ptr<LIEF::DEX::Prototype>, std::allocator<std::unique_ptr<LIEF::DEX::Prototype>>>::_Vector_impl_data" = type { ptr, ptr, ptr }
%"class.LIEF::DEX::MapList" = type { %"class.LIEF::Object", %"class.std::map" }
%"class.std::map" = type { %"class.std::_Rb_tree" }
%"class.std::_Rb_tree" = type { %"struct.std::_Rb_tree<LIEF::DEX::MapItem::TYPES, std::pair<const LIEF::DEX::MapItem::TYPES, LIEF::DEX::MapItem>, std::_Select1st<std::pair<const LIEF::DEX::MapItem::TYPES, LIEF::DEX::MapItem>>, std::less<LIEF::DEX::MapItem::TYPES>>::_Rb_tree_impl" }
%"struct.std::_Rb_tree<LIEF::DEX::MapItem::TYPES, std::pair<const LIEF::DEX::MapItem::TYPES, LIEF::DEX::MapItem>, std::_Select1st<std::pair<const LIEF::DEX::MapItem::TYPES, LIEF::DEX::MapItem>>, std::less<LIEF::DEX::MapItem::TYPES>>::_Rb_tree_impl" = type { %"struct.std::_Rb_tree_key_compare", %"struct.std::_Rb_tree_header" }
%"struct.std::_Rb_tree_key_compare" = type { %"struct.std::less" }
%"struct.std::less" = type { i8 }
%"struct.std::_Rb_tree_header" = type { %"struct.std::_Rb_tree_node_base", i64 }
%"struct.std::_Rb_tree_node_base" = type { i32, ptr, ptr, ptr }
%"class.std::vector.89" = type { %"struct.std::_Vector_base.90" }
%"struct.std::_Vector_base.90" = type { %"struct.std::_Vector_base<std::unique_ptr<LIEF::DEX::Class>, std::allocator<std::unique_ptr<LIEF::DEX::Class>>>::_Vector_impl" }
%"struct.std::_Vector_base<std::unique_ptr<LIEF::DEX::Class>, std::allocator<std::unique_ptr<LIEF::DEX::Class>>>::_Vector_impl" = type { %"struct.std::_Vector_base<std::unique_ptr<LIEF::DEX::Class>, std::allocator<std::unique_ptr<LIEF::DEX::Class>>>::_Vector_impl_data" }
%"struct.std::_Vector_base<std::unique_ptr<LIEF::DEX::Class>, std::allocator<std::unique_ptr<LIEF::DEX::Class>>>::_Vector_impl_data" = type { ptr, ptr, ptr }
%"class.std::vector.94" = type { %"struct.std::_Vector_base.95" }
%"struct.std::_Vector_base.95" = type { %"struct.std::_Vector_base<unsigned char, std::allocator<unsigned char>>::_Vector_impl" }
%"struct.std::_Vector_base<unsigned char, std::allocator<unsigned char>>::_Vector_impl" = type { %"struct.std::_Vector_base<unsigned char, std::allocator<unsigned char>>::_Vector_impl_data" }
%"struct.std::_Vector_base<unsigned char, std::allocator<unsigned char>>::_Vector_impl_data" = type { ptr, ptr, ptr }
%"struct.std::__detail::_Node_const_iterator.162" = type { %"struct.std::__detail::_Node_iterator_base.163" }
%"struct.std::__detail::_Node_iterator_base.163" = type { ptr }
%"struct.std::pair.164" = type { %"class.std::__cxx11::basic_string", ptr }
%"struct.std::__detail::_Hash_node_value_base.242" = type { %"struct.__gnu_cxx::__aligned_buffer.243" }
%"struct.__gnu_cxx::__aligned_buffer.243" = type { %"union.std::aligned_storage<40, 8>::type" }
%"union.std::aligned_storage<40, 8>::type" = type { [40 x i8] }

; Function Attrs: mustprogress nounwind uwtable
define linkonce_odr hidden void @_ZNSt8__detail19_Node_iterator_baseISt4pairIKNSt7__cxx1112basic_stringIcSt11char_traitsIcESaIcEEEPN4LIEF3DEX5ClassEELb1EEC2EPNS_10_Hash_nodeISD_Lb1EEE(ptr noundef nonnull align 8 dereferenceable(8) %0, ptr noundef %1) unnamed_addr #1 comdat align 2 {
  %3 = alloca ptr, align 8
  %4 = alloca ptr, align 8
  store ptr %0, ptr %3, align 8
  store ptr %1, ptr %4, align 8
  %5 = load ptr, ptr %3, align 8
  %6 = getelementptr inbounds %"struct.std::__detail::_Node_iterator_base.163", ptr %5, i32 0, i32 0
  %7 = load ptr, ptr %4, align 8
  store ptr %7, ptr %6, align 8
  ret void
}

; Function Attrs: mustprogress nounwind uwtable
define linkonce_odr hidden noundef ptr @_ZN9__gnu_cxx16__aligned_bufferISt4pairIKNSt7__cxx1112basic_stringIcSt11char_traitsIcESaIcEEEPN4LIEF3DEX5ClassEEE7_M_addrEv(ptr noundef nonnull align 8 dereferenceable(40) %0) #1 comdat align 2 {
  %2 = alloca ptr, align 8
  store ptr %0, ptr %2, align 8
  %3 = load ptr, ptr %2, align 8
  %4 = getelementptr inbounds %"struct.__gnu_cxx::__aligned_buffer.243", ptr %3, i32 0, i32 0
  ret ptr %4
}

; Function Attrs: mustprogress nounwind uwtable
define linkonce_odr hidden void @_ZNSt8__detail20_Node_const_iteratorISt4pairIKNSt7__cxx1112basic_stringIcSt11char_traitsIcESaIcEEEPN4LIEF3DEX5ClassEELb0ELb1EEC2EPNS_10_Hash_nodeISD_Lb1EEE(ptr noundef nonnull align 8 dereferenceable(8) %0, ptr noundef %1) unnamed_addr #1 comdat align 2 {
  %3 = alloca ptr, align 8
  %4 = alloca ptr, align 8
  store ptr %0, ptr %3, align 8
  store ptr %1, ptr %4, align 8
  %5 = load ptr, ptr %3, align 8
  %6 = load ptr, ptr %4, align 8
  call void @_ZNSt8__detail19_Node_iterator_baseISt4pairIKNSt7__cxx1112basic_stringIcSt11char_traitsIcESaIcEEEPN4LIEF3DEX5ClassEELb1EEC2EPNS_10_Hash_nodeISD_Lb1EEE(ptr noundef nonnull align 8 dereferenceable(8) %5, ptr noundef %6) #15
  ret void
}

; Function Attrs: mustprogress nounwind uwtable
define linkonce_odr hidden noundef ptr @_ZN9__gnu_cxx16__aligned_bufferISt4pairIKNSt7__cxx1112basic_stringIcSt11char_traitsIcESaIcEEEPN4LIEF3DEX5ClassEEE6_M_ptrEv(ptr noundef nonnull align 8 dereferenceable(40) %0) #1 comdat align 2 {
  %2 = alloca ptr, align 8
  store ptr %0, ptr %2, align 8
  %3 = load ptr, ptr %2, align 8
  %4 = call noundef ptr @_ZN9__gnu_cxx16__aligned_bufferISt4pairIKNSt7__cxx1112basic_stringIcSt11char_traitsIcESaIcEEEPN4LIEF3DEX5ClassEEE7_M_addrEv(ptr noundef nonnull align 8 dereferenceable(40) %3) #15
  ret ptr %4
}

; Function Attrs: mustprogress nounwind uwtable
define linkonce_odr hidden ptr @_ZNKSt10_HashtableINSt7__cxx1112basic_stringIcSt11char_traitsIcESaIcEEESt4pairIKS5_PN4LIEF3DEX5ClassEESaISC_ENSt8__detail10_Select1stESt8equal_toIS5_ESt4hashIS5_ENSE_18_Mod_range_hashingENSE_20_Default_ranged_hashENSE_20_Prime_rehash_policyENSE_17_Hashtable_traitsILb1ELb0ELb1EEEE3endEv(ptr noundef nonnull align 8 dereferenceable(56) %0) #1 comdat align 2 {
  %2 = alloca %"struct.std::__detail::_Node_const_iterator.162", align 8
  %3 = alloca ptr, align 8
  store ptr %0, ptr %3, align 8
  call void @_ZNSt8__detail20_Node_const_iteratorISt4pairIKNSt7__cxx1112basic_stringIcSt11char_traitsIcESaIcEEEPN4LIEF3DEX5ClassEELb0ELb1EEC2EPNS_10_Hash_nodeISD_Lb1EEE(ptr noundef nonnull align 8 dereferenceable(8) %2, ptr noundef null) #15
  %4 = getelementptr inbounds %"struct.std::__detail::_Node_const_iterator.162", ptr %2, i32 0, i32 0
  %5 = getelementptr inbounds %"struct.std::__detail::_Node_iterator_base.163", ptr %4, i32 0, i32 0
  %6 = load ptr, ptr %5, align 8
  ret ptr %6
}

; Function Attrs: mustprogress nounwind uwtable
define linkonce_odr hidden noundef ptr @_ZNSt8__detail21_Hash_node_value_baseISt4pairIKNSt7__cxx1112basic_stringIcSt11char_traitsIcESaIcEEEPN4LIEF3DEX5ClassEEE9_M_valptrEv(ptr noundef nonnull align 8 dereferenceable(40) %0) #1 comdat align 2 {
  %2 = alloca ptr, align 8
  store ptr %0, ptr %2, align 8
  %3 = load ptr, ptr %2, align 8
  %4 = getelementptr inbounds %"struct.std::__detail::_Hash_node_value_base.242", ptr %3, i32 0, i32 0
  %5 = call noundef ptr @_ZN9__gnu_cxx16__aligned_bufferISt4pairIKNSt7__cxx1112basic_stringIcSt11char_traitsIcESaIcEEEPN4LIEF3DEX5ClassEEE6_M_ptrEv(ptr noundef nonnull align 8 dereferenceable(40) %4) #15
  ret ptr %5
}

; Function Attrs: mustprogress nounwind uwtable
define linkonce_odr hidden ptr @_ZNKSt13unordered_mapINSt7__cxx1112basic_stringIcSt11char_traitsIcESaIcEEEPN4LIEF3DEX5ClassESt4hashIS5_ESt8equal_toIS5_ESaISt4pairIKS5_S9_EEE3endEv(ptr noundef nonnull align 8 dereferenceable(56) %0) #1 comdat align 2 {
  %2 = alloca %"struct.std::__detail::_Node_const_iterator.162", align 8
  %3 = alloca ptr, align 8
  store ptr %0, ptr %3, align 8
  %4 = load ptr, ptr %3, align 8
  %5 = getelementptr inbounds %"class.std::unordered_map.40", ptr %4, i32 0, i32 0
  %6 = call ptr @_ZNKSt10_HashtableINSt7__cxx1112basic_stringIcSt11char_traitsIcESaIcEEESt4pairIKS5_PN4LIEF3DEX5ClassEESaISC_ENSt8__detail10_Select1stESt8equal_toIS5_ESt4hashIS5_ENSE_18_Mod_range_hashingENSE_20_Default_ranged_hashENSE_20_Prime_rehash_policyENSE_17_Hashtable_traitsILb1ELb0ELb1EEEE3endEv(ptr noundef nonnull align 8 dereferenceable(56) %5) #15
  %7 = getelementptr inbounds %"struct.std::__detail::_Node_const_iterator.162", ptr %2, i32 0, i32 0
  %8 = getelementptr inbounds %"struct.std::__detail::_Node_iterator_base.163", ptr %7, i32 0, i32 0
  store ptr %6, ptr %8, align 8
  %9 = getelementptr inbounds %"struct.std::__detail::_Node_const_iterator.162", ptr %2, i32 0, i32 0
  %10 = getelementptr inbounds %"struct.std::__detail::_Node_iterator_base.163", ptr %9, i32 0, i32 0
  %11 = load ptr, ptr %10, align 8
  ret ptr %11
}

; Function Attrs: mustprogress nounwind uwtable
define linkonce_odr hidden noundef ptr @_ZNKSt8__detail20_Node_const_iteratorISt4pairIKNSt7__cxx1112basic_stringIcSt11char_traitsIcESaIcEEEPN4LIEF3DEX5ClassEELb0ELb1EEptEv(ptr noundef nonnull align 8 dereferenceable(8) %0) #1 comdat align 2 {
  %2 = alloca ptr, align 8
  store ptr %0, ptr %2, align 8
  %3 = load ptr, ptr %2, align 8
  %4 = getelementptr inbounds %"struct.std::__detail::_Node_iterator_base.163", ptr %3, i32 0, i32 0
  %5 = load ptr, ptr %4, align 8
  %6 = getelementptr inbounds i8, ptr %5, i64 8
  %7 = call noundef ptr @_ZNSt8__detail21_Hash_node_value_baseISt4pairIKNSt7__cxx1112basic_stringIcSt11char_traitsIcESaIcEEEPN4LIEF3DEX5ClassEEE9_M_valptrEv(ptr noundef nonnull align 8 dereferenceable(40) %6) #15
  ret ptr %7
}

; Function Attrs: mustprogress nounwind uwtable
define linkonce_odr noundef zeroext i1 @_ZNSt8__detaileqERKNS_19_Node_iterator_baseISt4pairIKNSt7__cxx1112basic_stringIcSt11char_traitsIcESaIcEEEPN4LIEF3DEX5ClassEELb1EEESG_(ptr noundef nonnull align 8 dereferenceable(8) %0, ptr noundef nonnull align 8 dereferenceable(8) %1) #1 comdat {
  %3 = alloca ptr, align 8
  %4 = alloca ptr, align 8
  store ptr %0, ptr %3, align 8
  store ptr %1, ptr %4, align 8
  %5 = load ptr, ptr %3, align 8
  %6 = getelementptr inbounds %"struct.std::__detail::_Node_iterator_base.163", ptr %5, i32 0, i32 0
  %7 = load ptr, ptr %6, align 8
  %8 = load ptr, ptr %4, align 8
  %9 = getelementptr inbounds %"struct.std::__detail::_Node_iterator_base.163", ptr %8, i32 0, i32 0
  %10 = load ptr, ptr %9, align 8
  %11 = icmp eq ptr %7, %10
  ret i1 %11
}

; Function Attrs: mustprogress nounwind uwtable
define linkonce_odr ptr @_ZSt3endISt13unordered_mapINSt7__cxx1112basic_stringIcSt11char_traitsIcESaIcEEEPN4LIEF3DEX5ClassESt4hashIS6_ESt8equal_toIS6_ESaISt4pairIKS6_SA_EEEEDTcldtfp_3endEERKT_(ptr noundef nonnull align 8 dereferenceable(56) %0) #1 comdat {
  %2 = alloca %"struct.std::__detail::_Node_const_iterator.162", align 8
  %3 = alloca ptr, align 8
  store ptr %0, ptr %3, align 8
  %4 = load ptr, ptr %3, align 8
  %5 = call ptr @_ZNKSt13unordered_mapINSt7__cxx1112basic_stringIcSt11char_traitsIcESaIcEEEPN4LIEF3DEX5ClassESt4hashIS5_ESt8equal_toIS5_ESaISt4pairIKS5_S9_EEE3endEv(ptr noundef nonnull align 8 dereferenceable(56) %4) #15
  %6 = getelementptr inbounds %"struct.std::__detail::_Node_const_iterator.162", ptr %2, i32 0, i32 0
  %7 = getelementptr inbounds %"struct.std::__detail::_Node_iterator_base.163", ptr %6, i32 0, i32 0
  store ptr %5, ptr %7, align 8
  %8 = getelementptr inbounds %"struct.std::__detail::_Node_const_iterator.162", ptr %2, i32 0, i32 0
  %9 = getelementptr inbounds %"struct.std::__detail::_Node_iterator_base.163", ptr %8, i32 0, i32 0
  %10 = load ptr, ptr %9, align 8
  ret ptr %10
}

; Function Attrs: mustprogress uwtable
define linkonce_odr hidden ptr @_ZNKSt13unordered_mapINSt7__cxx1112basic_stringIcSt11char_traitsIcESaIcEEEPN4LIEF3DEX5ClassESt4hashIS5_ESt8equal_toIS5_ESaISt4pairIKS5_S9_EEE4findERSF_(ptr noundef nonnull align 8 dereferenceable(56) %0, ptr noundef nonnull align 8 dereferenceable(32) %1) #3 comdat align 2 {
  %3 = alloca %"struct.std::__detail::_Node_const_iterator.162", align 8
  %4 = alloca ptr, align 8
  %5 = alloca ptr, align 8
  store ptr %0, ptr %4, align 8
  store ptr %1, ptr %5, align 8
  %6 = load ptr, ptr %4, align 8
  %7 = getelementptr inbounds %"class.std::unordered_map.40", ptr %6, i32 0, i32 0
  %8 = load ptr, ptr %5, align 8
  %9 = call ptr @_ZNKSt10_HashtableINSt7__cxx1112basic_stringIcSt11char_traitsIcESaIcEEESt4pairIKS5_PN4LIEF3DEX5ClassEESaISC_ENSt8__detail10_Select1stESt8equal_toIS5_ESt4hashIS5_ENSE_18_Mod_range_hashingENSE_20_Default_ranged_hashENSE_20_Prime_rehash_policyENSE_17_Hashtable_traitsILb1ELb0ELb1EEEE4findERS7_(ptr noundef nonnull align 8 dereferenceable(56) %7, ptr noundef nonnull align 8 dereferenceable(32) %8)
  %10 = getelementptr inbounds %"struct.std::__detail::_Node_const_iterator.162", ptr %3, i32 0, i32 0
  %11 = getelementptr inbounds %"struct.std::__detail::_Node_iterator_base.163", ptr %10, i32 0, i32 0
  store ptr %9, ptr %11, align 8
  %12 = getelementptr inbounds %"struct.std::__detail::_Node_const_iterator.162", ptr %3, i32 0, i32 0
  %13 = getelementptr inbounds %"struct.std::__detail::_Node_iterator_base.163", ptr %12, i32 0, i32 0
  %14 = load ptr, ptr %13, align 8
  ret ptr %14
}

; Function Attrs: mustprogress uwtable
define noundef ptr @_ZNK4LIEF3DEX4File9get_classERKNSt7__cxx1112basic_stringIcSt11char_traitsIcESaIcEEE(ptr noundef nonnull align 8 dereferenceable(472) %0, ptr noundef nonnull align 8 dereferenceable(32) %1) #3 align 2 personality ptr @__gxx_personality_v0 {
  %3 = alloca ptr, align 8
  %4 = alloca ptr, align 8
  %5 = alloca ptr, align 8
  %6 = alloca %"struct.std::__detail::_Node_const_iterator.162", align 8
  %7 = alloca %"class.std::__cxx11::basic_string", align 8
  %8 = alloca ptr, align 8
  %9 = alloca i32, align 4
  %10 = alloca %"struct.std::__detail::_Node_const_iterator.162", align 8
  store ptr %0, ptr %4, align 8
  store ptr %1, ptr %5, align 8
  %11 = load ptr, ptr %4, align 8
  %12 = getelementptr inbounds %"class.LIEF::DEX::File", ptr %11, i32 0, i32 4
  %13 = load ptr, ptr %5, align 8
  call void @_ZN4LIEF3DEX5Class19fullname_normalizedERKNSt7__cxx1112basic_stringIcSt11char_traitsIcESaIcEEE(ptr dead_on_unwind writable sret(%"class.std::__cxx11::basic_string") align 8 %7, ptr noundef nonnull align 8 dereferenceable(32) %13)
  %14 = invoke ptr @_ZNKSt13unordered_mapINSt7__cxx1112basic_stringIcSt11char_traitsIcESaIcEEEPN4LIEF3DEX5ClassESt4hashIS5_ESt8equal_toIS5_ESaISt4pairIKS5_S9_EEE4findERSF_(ptr noundef nonnull align 8 dereferenceable(56) %12, ptr noundef nonnull align 8 dereferenceable(32) %7)
          to label %15 unwind label %24

15:                                               ; preds = %2
  %16 = getelementptr inbounds %"struct.std::__detail::_Node_const_iterator.162", ptr %6, i32 0, i32 0
  %17 = getelementptr inbounds %"struct.std::__detail::_Node_iterator_base.163", ptr %16, i32 0, i32 0
  store ptr %14, ptr %17, align 8
  call void @_ZNSt7__cxx1112basic_stringIcSt11char_traitsIcESaIcEED1Ev(ptr noundef nonnull align 8 dereferenceable(32) %7) #15
  %18 = getelementptr inbounds %"class.LIEF::DEX::File", ptr %11, i32 0, i32 4
  %19 = call ptr @_ZSt3endISt13unordered_mapINSt7__cxx1112basic_stringIcSt11char_traitsIcESaIcEEEPN4LIEF3DEX5ClassESt4hashIS6_ESt8equal_toIS6_ESaISt4pairIKS6_SA_EEEEDTcldtfp_3endEERKT_(ptr noundef nonnull align 8 dereferenceable(56) %18)
  %20 = getelementptr inbounds %"struct.std::__detail::_Node_const_iterator.162", ptr %10, i32 0, i32 0
  %21 = getelementptr inbounds %"struct.std::__detail::_Node_iterator_base.163", ptr %20, i32 0, i32 0
  store ptr %19, ptr %21, align 8
  %22 = call noundef zeroext i1 @_ZNSt8__detaileqERKNS_19_Node_iterator_baseISt4pairIKNSt7__cxx1112basic_stringIcSt11char_traitsIcESaIcEEEPN4LIEF3DEX5ClassEELb1EEESG_(ptr noundef nonnull align 8 dereferenceable(8) %6, ptr noundef nonnull align 8 dereferenceable(8) %10) #15
  br i1 %22, label %23, label %28

23:                                               ; preds = %15
  store ptr null, ptr %3, align 8
  br label %32

24:                                               ; preds = %2
  %25 = landingpad { ptr, i32 }
          cleanup
  %26 = extractvalue { ptr, i32 } %25, 0
  store ptr %26, ptr %8, align 8
  %27 = extractvalue { ptr, i32 } %25, 1
  store i32 %27, ptr %9, align 4
  call void @_ZNSt7__cxx1112basic_stringIcSt11char_traitsIcESaIcEED1Ev(ptr noundef nonnull align 8 dereferenceable(32) %7) #15
  br label %34

28:                                               ; preds = %15
  %29 = call noundef ptr @_ZNKSt8__detail20_Node_const_iteratorISt4pairIKNSt7__cxx1112basic_stringIcSt11char_traitsIcESaIcEEEPN4LIEF3DEX5ClassEELb0ELb1EEptEv(ptr noundef nonnull align 8 dereferenceable(8) %6) #15
  %30 = getelementptr inbounds %"struct.std::pair.164", ptr %29, i32 0, i32 1
  %31 = load ptr, ptr %30, align 8
  store ptr %31, ptr %3, align 8
  br label %32

32:                                               ; preds = %28, %23
  %33 = load ptr, ptr %3, align 8
  ret ptr %33

34:                                               ; preds = %24
  %35 = load ptr, ptr %8, align 8
  %36 = load i32, ptr %9, align 4
  %37 = insertvalue { ptr, i32 } poison, ptr %35, 0
  %38 = insertvalue { ptr, i32 } %37, i32 %36, 1
  resume { ptr, i32 } %38
}